; Function Attrs: nounwind sspstrong uwtable
define internal i64 @last_match_getter(i64 %0, ptr readnone captures(none) %1) #2 {
  %3 = tail call i64 @rb_backref_get() #29
  %4 = icmp eq i64 %3, 4
  br i1 %4, label %rb_reg_last_match.exit, label %5

5:                                                ; preds = %2
  %6 = inttoptr i64 %3 to ptr
  %7 = getelementptr inbounds nuw i8, ptr %6, i64 24
  %8 = load i64, ptr %7, align 8, !tbaa !31
  %.not.i.i.i = icmp eq i64 %8, 0
  br i1 %.not.i.i.i, label %9, label %match_check.exit.i.i

9:                                                ; preds = %5
  %10 = load i64, ptr @rb_eTypeError, align 8, !tbaa !18
  tail call void (i64, ptr, ...) @rb_raise(i64 noundef %10, ptr noundef nonnull @.str.76) #30
  unreachable

match_check.exit.i.i:                             ; preds = %5
  %11 = getelementptr i8, ptr %6, i64 36
  %12 = load i32, ptr %11, align 4, !tbaa !40
  %.not.i.i = icmp sgt i32 %12, 0
  br i1 %.not.i.i, label %13, label %rb_reg_last_match.exit

13:                                               ; preds = %match_check.exit.i.i
  %14 = getelementptr i8, ptr %6, i64 40
  %15 = load ptr, ptr %14, align 8, !tbaa !92
  %16 = load i64, ptr %15, align 8, !tbaa !18
  %17 = icmp eq i64 %16, -1
  br i1 %17, label %rb_reg_last_match.exit, label %18

18:                                               ; preds = %13
  %19 = getelementptr i8, ptr %6, i64 48
  %20 = load ptr, ptr %19, align 8, !tbaa !93
  %21 = load i64, ptr %20, align 8, !tbaa !18
  %22 = sub i64 %21, %16
  %23 = getelementptr inbounds nuw i8, ptr %6, i64 16
  %24 = load i64, ptr %23, align 8, !tbaa !94
  %25 = tail call i64 @rb_str_subseq(i64 noundef %24, i64 noundef %16, i64 noundef %22) #29
  br label %rb_reg_last_match.exit

rb_reg_last_match.exit:                           ; preds = %2, %match_check.exit.i.i, %13, %18
  %.0.i.i = phi i64 [ %25, %18 ], [ 4, %2 ], [ 4, %match_check.exit.i.i ], [ 4, %13 ]
  ret i64 %.0.i.i
}